#include <math.h>
#include <stdio.h>
#include <stdlib.h>
#include <string.h>

void main()
{
	char a[2000];
	int b[300],t=0,n,i,j=0;
	scanf("%s",a);
	n=strlen(a);
	for(i=0;i<n;i++)
	{
		if(a[i]<='9'&&a[i]>='0')
		{
			t=t*10+a[i]-48;
			
		}
		else
		{
			b[j]=t;
			j++;
			t=0;
		}
	}
	b[j]=t;j++;
	for(i=1;i<j;i++)
	{
		for(t=0;t<j-i;t++)
		{
			if(b[t]<b[t+1])
			{
				n=b[t];
				b[t]=b[t+1];
				b[t+1]=n;
			}
		}
	}
	for(i=1;i<j;i++)
	{
		  if(b[i]!=b[i-1])
		  {
			  printf("%d",b[i]);
			  break;
		  }
		  
		  else
			  continue;
	}
	if(b[0]==b[j-1])
		printf("No");
	
}