; ModuleID = '22/282.c'
source_filename = "22/282.c"
target datalayout = "e-m:e-p270:32:32-p271:32:32-p272:64:64-i64:64-f80:128-n8:16:32:64-S128"
target triple = "x86_64-pc-linux-gnu"

@.str = private unnamed_addr constant [3 x i8] c"%s\00", align 1
@.str.1 = private unnamed_addr constant [3 x i8] c"%d\00", align 1
@.str.2 = private unnamed_addr constant [3 x i8] c"No\00", align 1

; Function Attrs: noinline nounwind uwtable
define dso_local void @main() #0 {
  %1 = alloca [2000 x i8], align 16
  %2 = alloca [300 x i32], align 16
  %3 = alloca i32, align 4
  %4 = alloca i32, align 4
  %5 = alloca i32, align 4
  %6 = alloca i32, align 4
  store i32 0, i32* %3, align 4
  store i32 0, i32* %6, align 4
  %7 = getelementptr inbounds [2000 x i8], [2000 x i8]* %1, i64 0, i64 0
  %8 = call i32 (i8*, ...) @__isoc99_scanf(i8* getelementptr inbounds ([3 x i8], [3 x i8]* @.str, i64 0, i64 0), i8* %7)
  %9 = getelementptr inbounds [2000 x i8], [2000 x i8]* %1, i64 0, i64 0
  %10 = call i64 @strlen(i8* %9) #3
  %11 = trunc i64 %10 to i32
  store i32 %11, i32* %4, align 4
  store i32 0, i32* %5, align 4
  br label %12

12:                                               ; preds = %48, %0
  %13 = load i32, i32* %5, align 4
  %14 = load i32, i32* %4, align 4
  %15 = icmp slt i32 %13, %14
  br i1 %15, label %16, label %51

16:                                               ; preds = %12
  %17 = load i32, i32* %5, align 4
  %18 = sext i32 %17 to i64
  %19 = getelementptr inbounds [2000 x i8], [2000 x i8]* %1, i64 0, i64 %18
  %20 = load i8, i8* %19, align 1
  %21 = sext i8 %20 to i32
  %22 = icmp sle i32 %21, 57
  br i1 %22, label %23, label %40

23:                                               ; preds = %16
  %24 = load i32, i32* %5, align 4
  %25 = sext i32 %24 to i64
  %26 = getelementptr inbounds [2000 x i8], [2000 x i8]* %1, i64 0, i64 %25
  %27 = load i8, i8* %26, align 1
  %28 = sext i8 %27 to i32
  %29 = icmp sge i32 %28, 48
  br i1 %29, label %30, label %40

30:                                               ; preds = %23
  %31 = load i32, i32* %3, align 4
  %32 = mul nsw i32 %31, 10
  %33 = load i32, i32* %5, align 4
  %34 = sext i32 %33 to i64
  %35 = getelementptr inbounds [2000 x i8], [2000 x i8]* %1, i64 0, i64 %34
  %36 = load i8, i8* %35, align 1
  %37 = sext i8 %36 to i32
  %38 = add nsw i32 %32, %37
  %39 = sub nsw i32 %38, 48
  store i32 %39, i32* %3, align 4
  br label %47

40:                                               ; preds = %23, %16
  %41 = load i32, i32* %3, align 4
  %42 = load i32, i32* %6, align 4
  %43 = sext i32 %42 to i64
  %44 = getelementptr inbounds [300 x i32], [300 x i32]* %2, i64 0, i64 %43
  store i32 %41, i32* %44, align 4
  %45 = load i32, i32* %6, align 4
  %46 = add nsw i32 %45, 1
  store i32 %46, i32* %6, align 4
  store i32 0, i32* %3, align 4
  br label %47

47:                                               ; preds = %40, %30
  br label %48

48:                                               ; preds = %47
  %49 = load i32, i32* %5, align 4
  %50 = add nsw i32 %49, 1
  store i32 %50, i32* %5, align 4
  br label %12

51:                                               ; preds = %12
  %52 = load i32, i32* %3, align 4
  %53 = load i32, i32* %6, align 4
  %54 = sext i32 %53 to i64
  %55 = getelementptr inbounds [300 x i32], [300 x i32]* %2, i64 0, i64 %54
  store i32 %52, i32* %55, align 4
  %56 = load i32, i32* %6, align 4
  %57 = add nsw i32 %56, 1
  store i32 %57, i32* %6, align 4
  store i32 1, i32* %5, align 4
  br label %58

58:                                               ; preds = %103, %51
  %59 = load i32, i32* %5, align 4
  %60 = load i32, i32* %6, align 4
  %61 = icmp slt i32 %59, %60
  br i1 %61, label %62, label %106

62:                                               ; preds = %58
  store i32 0, i32* %3, align 4
  br label %63

63:                                               ; preds = %99, %62
  %64 = load i32, i32* %3, align 4
  %65 = load i32, i32* %6, align 4
  %66 = load i32, i32* %5, align 4
  %67 = sub nsw i32 %65, %66
  %68 = icmp slt i32 %64, %67
  br i1 %68, label %69, label %102

69:                                               ; preds = %63
  %70 = load i32, i32* %3, align 4
  %71 = sext i32 %70 to i64
  %72 = getelementptr inbounds [300 x i32], [300 x i32]* %2, i64 0, i64 %71
  %73 = load i32, i32* %72, align 4
  %74 = load i32, i32* %3, align 4
  %75 = add nsw i32 %74, 1
  %76 = sext i32 %75 to i64
  %77 = getelementptr inbounds [300 x i32], [300 x i32]* %2, i64 0, i64 %76
  %78 = load i32, i32* %77, align 4
  %79 = icmp slt i32 %73, %78
  br i1 %79, label %80, label %98

80:                                               ; preds = %69
  %81 = load i32, i32* %3, align 4
  %82 = sext i32 %81 to i64
  %83 = getelementptr inbounds [300 x i32], [300 x i32]* %2, i64 0, i64 %82
  %84 = load i32, i32* %83, align 4
  store i32 %84, i32* %4, align 4
  %85 = load i32, i32* %3, align 4
  %86 = add nsw i32 %85, 1
  %87 = sext i32 %86 to i64
  %88 = getelementptr inbounds [300 x i32], [300 x i32]* %2, i64 0, i64 %87
  %89 = load i32, i32* %88, align 4
  %90 = load i32, i32* %3, align 4
  %91 = sext i32 %90 to i64
  %92 = getelementptr inbounds [300 x i32], [300 x i32]* %2, i64 0, i64 %91
  store i32 %89, i32* %92, align 4
  %93 = load i32, i32* %4, align 4
  %94 = load i32, i32* %3, align 4
  %95 = add nsw i32 %94, 1
  %96 = sext i32 %95 to i64
  %97 = getelementptr inbounds [300 x i32], [300 x i32]* %2, i64 0, i64 %96
  store i32 %93, i32* %97, align 4
  br label %98

98:                                               ; preds = %80, %69
  br label %99

99:                                               ; preds = %98
  %100 = load i32, i32* %3, align 4
  %101 = add nsw i32 %100, 1
  store i32 %101, i32* %3, align 4
  br label %63

102:                                              ; preds = %63
  br label %103

103:                                              ; preds = %102
  %104 = load i32, i32* %5, align 4
  %105 = add nsw i32 %104, 1
  store i32 %105, i32* %5, align 4
  br label %58

106:                                              ; preds = %58
  store i32 1, i32* %5, align 4
  br label %107

107:                                              ; preds = %129, %106
  %108 = load i32, i32* %5, align 4
  %109 = load i32, i32* %6, align 4
  %110 = icmp slt i32 %108, %109
  br i1 %110, label %111, label %132

111:                                              ; preds = %107
  %112 = load i32, i32* %5, align 4
  %113 = sext i32 %112 to i64
  %114 = getelementptr inbounds [300 x i32], [300 x i32]* %2, i64 0, i64 %113
  %115 = load i32, i32* %114, align 4
  %116 = load i32, i32* %5, align 4
  %117 = sub nsw i32 %116, 1
  %118 = sext i32 %117 to i64
  %119 = getelementptr inbounds [300 x i32], [300 x i32]* %2, i64 0, i64 %118
  %120 = load i32, i32* %119, align 4
  %121 = icmp ne i32 %115, %120
  br i1 %121, label %122, label %128

122:                                              ; preds = %111
  %123 = load i32, i32* %5, align 4
  %124 = sext i32 %123 to i64
  %125 = getelementptr inbounds [300 x i32], [300 x i32]* %2, i64 0, i64 %124
  %126 = load i32, i32* %125, align 4
  %127 = call i32 (i8*, ...) @printf(i8* getelementptr inbounds ([3 x i8], [3 x i8]* @.str.1, i64 0, i64 0), i32 %126)
  br label %132

128:                                              ; preds = %111
  br label %129

129:                                              ; preds = %128
  %130 = load i32, i32* %5, align 4
  %131 = add nsw i32 %130, 1
  store i32 %131, i32* %5, align 4
  br label %107

132:                                              ; preds = %122, %107
  %133 = getelementptr inbounds [300 x i32], [300 x i32]* %2, i64 0, i64 0
  %134 = load i32, i32* %133, align 16
  %135 = load i32, i32* %6, align 4
  %136 = sub nsw i32 %135, 1
  %137 = sext i32 %136 to i64
  %138 = getelementptr inbounds [300 x i32], [300 x i32]* %2, i64 0, i64 %137
  %139 = load i32, i32* %138, align 4
  %140 = icmp eq i32 %134, %139
  br i1 %140, label %141, label %143

141:                                              ; preds = %132
  %142 = call i32 (i8*, ...) @printf(i8* getelementptr inbounds ([3 x i8], [3 x i8]* @.str.2, i64 0, i64 0))
  br label %143

143:                                              ; preds = %141, %132
  ret void
}

declare dso_local i32 @__isoc99_scanf(i8*, ...) #1

; Function Attrs: nounwind readonly
declare dso_local i64 @strlen(i8*) #2

declare dso_local i32 @printf(i8*, ...) #1


!llvm.module.flags = !{!0}
!llvm.ident = !{!1}

!0 = !{i32 1, !"wchar_size", i32 4}
!1 = !{!"clang version 10.0.0-4ubuntu1 "}
